target datalayout = "e-m:e-p270:32:32-p271:32:32-p272:64:64-i64:64-i128:128-f80:128-n8:16:32:64-S128"
target triple = "x86_64-pc-linux-gnu"

%struct.pmix_object_t = type { %union.pthread_mutex_t, ptr, i32, %struct.pmix_tma }
%union.pthread_mutex_t = type { %struct.__pthread_mutex_s }
%struct.__pthread_mutex_s = type { i32, i32, i32, i32, i32, i16, i16, %struct.__pthread_internal_list }
%struct.__pthread_internal_list = type { ptr, ptr }
%struct.pmix_tma = type { ptr, ptr, ptr, ptr, ptr, ptr, ptr, ptr }
%struct.pmix_list_item_t = type { %struct.pmix_object_t, ptr, ptr, i32 }
%struct.timeval = type { i64, i64 }
%struct.pmix_class_t = type { ptr, ptr, ptr, ptr, i32, i32, ptr, ptr, i64 }
%struct.event = type { %struct.event_callback, %union.anon.0, i32, ptr, %union.anon.2, i16, i16, %struct.timeval }
%struct.event_callback = type { %struct.anon, i16, i8, i8, %union.anon, ptr }
%struct.anon = type { ptr, ptr }
%union.anon = type { ptr }
%union.anon.0 = type { %struct.anon.1 }
%struct.anon.1 = type { ptr, ptr }
%union.anon.2 = type { %struct.anon.3 }
%struct.anon.3 = type { %struct.anon.4, %struct.timeval }
%struct.anon.4 = type { ptr, ptr }
%struct.pmix_server_caddy_t = type { %struct.pmix_list_item_t, %struct.event, i8, ptr, %struct.pmix_ptl_hdr_t, ptr, ptr, i64 }
%struct.pmix_ptl_hdr_t = type { i32, i32, i32, i32 }

@.str.86 = private unnamed_addr constant [21 x i8] c"pthread_mutex_lock()\00", align 1

; Function Attrs: inlinehint nounwind uwtable
define internal void @pmix_tma_free(ptr noundef %0, ptr noundef %1) #4 {
  %3 = alloca ptr, align 8
  %4 = alloca ptr, align 8
  store ptr %0, ptr %3, align 8, !tbaa !132
  store ptr %1, ptr %4, align 8, !tbaa !8
  %5 = load ptr, ptr %3, align 8, !tbaa !132
  %6 = icmp ne ptr null, %5
  br i1 %6, label %7, label %13

7:                                                ; preds = %2
  %8 = load ptr, ptr %3, align 8, !tbaa !132
  %9 = getelementptr inbounds nuw %struct.pmix_tma, ptr %8, i32 0, i32 5
  %10 = load ptr, ptr %9, align 8, !tbaa !148
  %11 = load ptr, ptr %3, align 8, !tbaa !132
  %12 = load ptr, ptr %4, align 8, !tbaa !8
  call void %10(ptr noundef %11, ptr noundef %12)
  br label %15

13:                                               ; preds = %2
  %14 = load ptr, ptr %4, align 8, !tbaa !8
  call void @free(ptr noundef %14) #14
  br label %15

15:                                               ; preds = %13, %7
  ret void
}

; Function Attrs: inlinehint nounwind uwtable
define internal void @pmix_obj_run_destructors(ptr noundef %0) #4 {
  %2 = alloca ptr, align 8
  %3 = alloca ptr, align 8
  store ptr %0, ptr %2, align 8, !tbaa !89
  call void @llvm.lifetime.start.p0(i64 8, ptr %3) #14
  %4 = load ptr, ptr %2, align 8, !tbaa !89
  %5 = getelementptr inbounds nuw %struct.pmix_object_t, ptr %4, i32 0, i32 1
  %6 = load ptr, ptr %5, align 8, !tbaa !82
  %7 = getelementptr inbounds nuw %struct.pmix_class_t, ptr %6, i32 0, i32 7
  %8 = load ptr, ptr %7, align 8, !tbaa !146
  store ptr %8, ptr %3, align 8, !tbaa !8
  br label %9

9:                                                ; preds = %13, %1
  %10 = load ptr, ptr %3, align 8, !tbaa !8
  %11 = load ptr, ptr %10, align 8, !tbaa !8
  %12 = icmp ne ptr null, %11
  br i1 %12, label %13, label %19

13:                                               ; preds = %9
  %14 = load ptr, ptr %3, align 8, !tbaa !8
  %15 = load ptr, ptr %14, align 8, !tbaa !8
  %16 = load ptr, ptr %2, align 8, !tbaa !89
  call void %15(ptr noundef %16)
  %17 = load ptr, ptr %3, align 8, !tbaa !8
  %18 = getelementptr inbounds nuw ptr, ptr %17, i32 1
  store ptr %18, ptr %3, align 8, !tbaa !8
  br label %9, !llvm.loop !147

19:                                               ; preds = %9
  call void @llvm.lifetime.end.p0(i64 8, ptr %3) #14
  ret void
}

; Function Attrs: alwaysinline nounwind uwtable
define internal i32 @pmix_obj_update(ptr noundef %0, i32 noundef %1) #6 {
  %3 = alloca ptr, align 8
  %4 = alloca i32, align 4
  %5 = alloca i32, align 4
  store ptr %0, ptr %3, align 8, !tbaa !89
  store i32 %1, ptr %4, align 4, !tbaa !28
  call void @llvm.lifetime.start.p0(i64 4, ptr %5) #14
  %6 = load ptr, ptr %3, align 8, !tbaa !89
  %7 = getelementptr inbounds nuw %struct.pmix_object_t, ptr %6, i32 0, i32 0
  %8 = call i32 @pthread_mutex_lock(ptr noundef %7) #14
  store i32 %8, ptr %5, align 4, !tbaa !28
  %9 = load i32, ptr %5, align 4, !tbaa !28
  %10 = icmp eq i32 %9, 35
  br i1 %10, label %11, label %14

11:                                               ; preds = %2
  %12 = load i32, ptr %5, align 4, !tbaa !28
  %13 = call ptr @__errno_location() #16
  store i32 %12, ptr %13, align 4, !tbaa !28
  call void @perror(ptr noundef @.str.86)
  call void @abort() #17
  unreachable

14:                                               ; preds = %2
  %15 = load i32, ptr %4, align 4, !tbaa !28
  %16 = load ptr, ptr %3, align 8, !tbaa !89
  %17 = getelementptr inbounds nuw %struct.pmix_object_t, ptr %16, i32 0, i32 2
  %18 = load i32, ptr %17, align 8, !tbaa !83
  %19 = add nsw i32 %18, %15
  store i32 %19, ptr %17, align 8, !tbaa !83
  store i32 %19, ptr %5, align 4, !tbaa !28
  %20 = load ptr, ptr %3, align 8, !tbaa !89
  %21 = getelementptr inbounds nuw %struct.pmix_object_t, ptr %20, i32 0, i32 0
  %22 = call i32 @pthread_mutex_unlock(ptr noundef %21) #14
  %23 = load i32, ptr %5, align 4, !tbaa !28
  call void @llvm.lifetime.end.p0(i64 4, ptr %5) #14
  ret i32 %23
}

; Function Attrs: nounwind uwtable
define internal void @cddes(ptr noundef %0) #0 {
  %2 = alloca ptr, align 8
  %3 = alloca ptr, align 8
  %4 = alloca ptr, align 8
  store ptr %0, ptr %2, align 8, !tbaa !8
  %5 = load ptr, ptr %2, align 8, !tbaa !8
  %6 = getelementptr inbounds nuw %struct.pmix_server_caddy_t, ptr %5, i32 0, i32 2
  %7 = load i8, ptr %6, align 8, !tbaa !448, !range !116, !noundef !117
  %8 = trunc i8 %7 to i1
  br i1 %8, label %9, label %13

9:                                                ; preds = %1
  %10 = load ptr, ptr %2, align 8, !tbaa !8
  %11 = getelementptr inbounds nuw %struct.pmix_server_caddy_t, ptr %10, i32 0, i32 1
  %12 = call i32 @event_del(ptr noundef %11)
  br label %13

13:                                               ; preds = %9, %1
  %14 = load ptr, ptr %2, align 8, !tbaa !8
  %15 = getelementptr inbounds nuw %struct.pmix_server_caddy_t, ptr %14, i32 0, i32 3
  %16 = load ptr, ptr %15, align 8, !tbaa !226
  %17 = icmp ne ptr null, %16
  br i1 %17, label %18, label %48

18:                                               ; preds = %13
  br label %19

19:                                               ; preds = %18
  call void @llvm.lifetime.start.p0(i64 8, ptr %3) #14
  %20 = load ptr, ptr %2, align 8, !tbaa !8
  %21 = getelementptr inbounds nuw %struct.pmix_server_caddy_t, ptr %20, i32 0, i32 3
  %22 = load ptr, ptr %21, align 8, !tbaa !226
  store ptr %22, ptr %3, align 8, !tbaa !89
  %23 = load ptr, ptr %3, align 8, !tbaa !89
  %24 = call i32 @pmix_obj_update(ptr noundef %23, i32 noundef -1)
  %25 = icmp eq i32 0, %24
  br i1 %25, label %26, label %46

26:                                               ; preds = %19
  %27 = load ptr, ptr %3, align 8, !tbaa !89
  call void @pmix_obj_run_destructors(ptr noundef %27)
  %28 = load ptr, ptr %3, align 8, !tbaa !89
  %29 = getelementptr inbounds nuw %struct.pmix_object_t, ptr %28, i32 0, i32 3
  %30 = getelementptr inbounds nuw %struct.pmix_tma, ptr %29, i32 0, i32 5
  %31 = load ptr, ptr %30, align 8, !tbaa !91
  %32 = icmp ne ptr null, %31
  br i1 %32, label %33, label %39

33:                                               ; preds = %26
  %34 = load ptr, ptr %3, align 8, !tbaa !89
  %35 = getelementptr inbounds nuw %struct.pmix_object_t, ptr %34, i32 0, i32 3
  %36 = load ptr, ptr %2, align 8, !tbaa !8
  %37 = getelementptr inbounds nuw %struct.pmix_server_caddy_t, ptr %36, i32 0, i32 3
  %38 = load ptr, ptr %37, align 8, !tbaa !226
  call void @pmix_tma_free(ptr noundef %35, ptr noundef %38)
  br label %43

39:                                               ; preds = %26
  %40 = load ptr, ptr %2, align 8, !tbaa !8
  %41 = getelementptr inbounds nuw %struct.pmix_server_caddy_t, ptr %40, i32 0, i32 3
  %42 = load ptr, ptr %41, align 8, !tbaa !226
  call void @free(ptr noundef %42) #14
  br label %43

43:                                               ; preds = %39, %33
  %44 = load ptr, ptr %2, align 8, !tbaa !8
  %45 = getelementptr inbounds nuw %struct.pmix_server_caddy_t, ptr %44, i32 0, i32 3
  store ptr null, ptr %45, align 8, !tbaa !226
  br label %46

46:                                               ; preds = %43, %19
  call void @llvm.lifetime.end.p0(i64 8, ptr %3) #14
  br label %47

47:                                               ; preds = %46
  br label %48

48:                                               ; preds = %47, %13
  %49 = load ptr, ptr %2, align 8, !tbaa !8
  %50 = getelementptr inbounds nuw %struct.pmix_server_caddy_t, ptr %49, i32 0, i32 5
  %51 = load ptr, ptr %50, align 8, !tbaa !189
  %52 = icmp ne ptr null, %51
  br i1 %52, label %53, label %83

53:                                               ; preds = %48
  br label %54

54:                                               ; preds = %53
  call void @llvm.lifetime.start.p0(i64 8, ptr %4) #14
  %55 = load ptr, ptr %2, align 8, !tbaa !8
  %56 = getelementptr inbounds nuw %struct.pmix_server_caddy_t, ptr %55, i32 0, i32 5
  %57 = load ptr, ptr %56, align 8, !tbaa !189
  store ptr %57, ptr %4, align 8, !tbaa !89
  %58 = load ptr, ptr %4, align 8, !tbaa !89
  %59 = call i32 @pmix_obj_update(ptr noundef %58, i32 noundef -1)
  %60 = icmp eq i32 0, %59
  br i1 %60, label %61, label %81

61:                                               ; preds = %54
  %62 = load ptr, ptr %4, align 8, !tbaa !89
  call void @pmix_obj_run_destructors(ptr noundef %62)
  %63 = load ptr, ptr %4, align 8, !tbaa !89
  %64 = getelementptr inbounds nuw %struct.pmix_object_t, ptr %63, i32 0, i32 3
  %65 = getelementptr inbounds nuw %struct.pmix_tma, ptr %64, i32 0, i32 5
  %66 = load ptr, ptr %65, align 8, !tbaa !91
  %67 = icmp ne ptr null, %66
  br i1 %67, label %68, label %74

68:                                               ; preds = %61
  %69 = load ptr, ptr %4, align 8, !tbaa !89
  %70 = getelementptr inbounds nuw %struct.pmix_object_t, ptr %69, i32 0, i32 3
  %71 = load ptr, ptr %2, align 8, !tbaa !8
  %72 = getelementptr inbounds nuw %struct.pmix_server_caddy_t, ptr %71, i32 0, i32 5
  %73 = load ptr, ptr %72, align 8, !tbaa !189
  call void @pmix_tma_free(ptr noundef %70, ptr noundef %73)
  br label %78

74:                                               ; preds = %61
  %75 = load ptr, ptr %2, align 8, !tbaa !8
  %76 = getelementptr inbounds nuw %struct.pmix_server_caddy_t, ptr %75, i32 0, i32 5
  %77 = load ptr, ptr %76, align 8, !tbaa !189
  call void @free(ptr noundef %77) #14
  br label %78

78:                                               ; preds = %74, %68
  %79 = load ptr, ptr %2, align 8, !tbaa !8
  %80 = getelementptr inbounds nuw %struct.pmix_server_caddy_t, ptr %79, i32 0, i32 5
  store ptr null, ptr %80, align 8, !tbaa !189
  br label %81

81:                                               ; preds = %78, %54
  call void @llvm.lifetime.end.p0(i64 8, ptr %4) #14
  br label %82

82:                                               ; preds = %81
  br label %83

83:                                               ; preds = %82, %48
  %84 = load ptr, ptr %2, align 8, !tbaa !8
  %85 = getelementptr inbounds nuw %struct.pmix_server_caddy_t, ptr %84, i32 0, i32 6
  %86 = load ptr, ptr %85, align 8, !tbaa !412
  %87 = icmp ne ptr null, %86
  br i1 %87, label %88, label %99

88:                                               ; preds = %83
  br label %89

89:                                               ; preds = %88
  %90 = load ptr, ptr %2, align 8, !tbaa !8
  %91 = getelementptr inbounds nuw %struct.pmix_server_caddy_t, ptr %90, i32 0, i32 6
  %92 = load ptr, ptr %91, align 8, !tbaa !412
  %93 = load ptr, ptr %2, align 8, !tbaa !8
  %94 = getelementptr inbounds nuw %struct.pmix_server_caddy_t, ptr %93, i32 0, i32 7
  %95 = load i64, ptr %94, align 8, !tbaa !426
  call void @PMIx_Info_free(ptr noundef %92, i64 noundef %95)
  %96 = load ptr, ptr %2, align 8, !tbaa !8
  %97 = getelementptr inbounds nuw %struct.pmix_server_caddy_t, ptr %96, i32 0, i32 6
  store ptr null, ptr %97, align 8, !tbaa !412
  br label %98

98:                                               ; preds = %89
  br label %99

99:                                               ; preds = %98, %83
  ret void
}