; Function Attrs: nounwind uwtable
define internal void @cddes(ptr noundef %0) #0 {
  %2 = getelementptr inbounds nuw i8, ptr %0, i64 272
  %3 = load i8, ptr %2, align 8, !tbaa !396, !range !117, !noundef !151
  %4 = trunc nuw i8 %3 to i1
  br i1 %4, label %5, label %8

5:                                                ; preds = %1
  %6 = getelementptr inbounds nuw i8, ptr %0, i64 144
  %7 = tail call i32 @event_del(ptr noundef nonnull %6) #19
  br label %8

8:                                                ; preds = %5, %1
  %9 = getelementptr inbounds nuw i8, ptr %0, i64 280
  %10 = load ptr, ptr %9, align 8, !tbaa !194
  %.not = icmp eq ptr %10, null
  br i1 %.not, label %38, label %11

11:                                               ; preds = %8
  %12 = tail call i32 @pthread_mutex_lock(ptr noundef nonnull %10) #19
  %13 = icmp eq i32 %12, 35
  br i1 %13, label %14, label %pmix_obj_update.exit30

14:                                               ; preds = %11
  %15 = tail call ptr @__errno_location() #22
  store i32 35, ptr %15, align 4, !tbaa !23
  tail call void @perror(ptr noundef nonnull @.str.86) #23
  tail call void @abort() #24
  unreachable

pmix_obj_update.exit30:                           ; preds = %11
  %16 = getelementptr inbounds nuw i8, ptr %10, i64 48
  %17 = load i32, ptr %16, align 8, !tbaa !78
  %18 = add nsw i32 %17, -1
  store i32 %18, ptr %16, align 8, !tbaa !78
  %19 = tail call i32 @pthread_mutex_unlock(ptr noundef nonnull %10) #19
  %20 = icmp eq i32 %18, 0
  br i1 %20, label %21, label %38

21:                                               ; preds = %pmix_obj_update.exit30
  %22 = getelementptr inbounds nuw i8, ptr %10, i64 40
  %23 = load ptr, ptr %22, align 8, !tbaa !77
  %24 = getelementptr inbounds nuw i8, ptr %23, i64 48
  %25 = load ptr, ptr %24, align 8, !tbaa !88
  %26 = load ptr, ptr %25, align 8, !tbaa !80
  %.not6.i = icmp eq ptr %26, null
  br i1 %.not6.i, label %pmix_obj_run_destructors.exit, label %.lr.ph.i

.lr.ph.i:                                         ; preds = %21, %.lr.ph.i
  %27 = phi ptr [ %29, %.lr.ph.i ], [ %26, %21 ]
  %.07.i = phi ptr [ %28, %.lr.ph.i ], [ %25, %21 ]
  tail call void %27(ptr noundef nonnull %10) #19
  %28 = getelementptr inbounds nuw i8, ptr %.07.i, i64 8
  %29 = load ptr, ptr %28, align 8, !tbaa !80
  %.not.i = icmp eq ptr %29, null
  br i1 %.not.i, label %pmix_obj_run_destructors.exit, label %.lr.ph.i, !llvm.loop !89

pmix_obj_run_destructors.exit:                    ; preds = %.lr.ph.i, %21
  %30 = getelementptr inbounds nuw i8, ptr %10, i64 96
  %31 = load ptr, ptr %30, align 8, !tbaa !90
  %.not26 = icmp eq ptr %31, null
  br i1 %.not26, label %35, label %32

32:                                               ; preds = %pmix_obj_run_destructors.exit
  %33 = getelementptr inbounds nuw i8, ptr %10, i64 56
  %34 = load ptr, ptr %9, align 8, !tbaa !194
  tail call void %31(ptr noundef nonnull %33, ptr noundef %34) #19
  br label %37

35:                                               ; preds = %pmix_obj_run_destructors.exit
  %36 = load ptr, ptr %9, align 8, !tbaa !194
  tail call void @free(ptr noundef %36) #19
  br label %37

37:                                               ; preds = %35, %32
  store ptr null, ptr %9, align 8, !tbaa !194
  br label %38

38:                                               ; preds = %pmix_obj_update.exit30, %37, %8
  %39 = getelementptr inbounds nuw i8, ptr %0, i64 304
  %40 = load ptr, ptr %39, align 8, !tbaa !162
  %.not27 = icmp eq ptr %40, null
  br i1 %.not27, label %68, label %41

41:                                               ; preds = %38
  %42 = tail call i32 @pthread_mutex_lock(ptr noundef nonnull %40) #19
  %43 = icmp eq i32 %42, 35
  br i1 %43, label %44, label %pmix_obj_update.exit

44:                                               ; preds = %41
  %45 = tail call ptr @__errno_location() #22
  store i32 35, ptr %45, align 4, !tbaa !23
  tail call void @perror(ptr noundef nonnull @.str.86) #23
  tail call void @abort() #24
  unreachable

pmix_obj_update.exit:                             ; preds = %41
  %46 = getelementptr inbounds nuw i8, ptr %40, i64 48
  %47 = load i32, ptr %46, align 8, !tbaa !78
  %48 = add nsw i32 %47, -1
  store i32 %48, ptr %46, align 8, !tbaa !78
  %49 = tail call i32 @pthread_mutex_unlock(ptr noundef nonnull %40) #19
  %50 = icmp eq i32 %48, 0
  br i1 %50, label %51, label %68

51:                                               ; preds = %pmix_obj_update.exit
  %52 = getelementptr inbounds nuw i8, ptr %40, i64 40
  %53 = load ptr, ptr %52, align 8, !tbaa !77
  %54 = getelementptr inbounds nuw i8, ptr %53, i64 48
  %55 = load ptr, ptr %54, align 8, !tbaa !88
  %56 = load ptr, ptr %55, align 8, !tbaa !80
  %.not6.i32 = icmp eq ptr %56, null
  br i1 %.not6.i32, label %pmix_obj_run_destructors.exit36, label %.lr.ph.i33

.lr.ph.i33:                                       ; preds = %51, %.lr.ph.i33
  %57 = phi ptr [ %59, %.lr.ph.i33 ], [ %56, %51 ]
  %.07.i34 = phi ptr [ %58, %.lr.ph.i33 ], [ %55, %51 ]
  tail call void %57(ptr noundef nonnull %40) #19
  %58 = getelementptr inbounds nuw i8, ptr %.07.i34, i64 8
  %59 = load ptr, ptr %58, align 8, !tbaa !80
  %.not.i35 = icmp eq ptr %59, null
  br i1 %.not.i35, label %pmix_obj_run_destructors.exit36, label %.lr.ph.i33, !llvm.loop !89

pmix_obj_run_destructors.exit36:                  ; preds = %.lr.ph.i33, %51
  %60 = getelementptr inbounds nuw i8, ptr %40, i64 96
  %61 = load ptr, ptr %60, align 8, !tbaa !90
  %.not28 = icmp eq ptr %61, null
  br i1 %.not28, label %65, label %62

62:                                               ; preds = %pmix_obj_run_destructors.exit36
  %63 = getelementptr inbounds nuw i8, ptr %40, i64 56
  %64 = load ptr, ptr %39, align 8, !tbaa !162
  tail call void %61(ptr noundef nonnull %63, ptr noundef %64) #19
  br label %67

65:                                               ; preds = %pmix_obj_run_destructors.exit36
  %66 = load ptr, ptr %39, align 8, !tbaa !162
  tail call void @free(ptr noundef %66) #19
  br label %67

67:                                               ; preds = %65, %62
  store ptr null, ptr %39, align 8, !tbaa !162
  br label %68

68:                                               ; preds = %pmix_obj_update.exit, %67, %38
  %69 = getelementptr inbounds nuw i8, ptr %0, i64 312
  %70 = load ptr, ptr %69, align 8, !tbaa !365
  %.not29 = icmp eq ptr %70, null
  br i1 %.not29, label %74, label %71

71:                                               ; preds = %68
  %72 = getelementptr inbounds nuw i8, ptr %0, i64 320
  %73 = load i64, ptr %72, align 8, !tbaa !377
  tail call void @PMIx_Info_free(ptr noundef nonnull %70, i64 noundef %73) #19
  store ptr null, ptr %69, align 8, !tbaa !365
  br label %74

74:                                               ; preds = %71, %68
  ret void
}